target datalayout = "e-m:e-p270:32:32-p271:32:32-p272:64:64-i64:64-i128:128-f80:128-n8:16:32:64-S128"
target triple = "x86_64-pc-linux-gnu"

%"class.clang::ASTDumper" = type <{ %"class.clang::ASTNodeTraverser", %"class.clang::TextNodeDumper", ptr, i8, [7 x i8] }>
%"class.clang::ASTNodeTraverser" = type { i8, i8, i32 }
%"class.clang::TextNodeDumper" = type { %"class.clang::TextTreeStructure", ptr, i8, ptr, i32, ptr, ptr, %"struct.clang::PrintingPolicy", ptr }
%"class.clang::TextTreeStructure" = type { ptr, i8, %"class.llvm::SmallVector", i8, i8, %"class.std::__cxx11::basic_string" }
%"class.llvm::SmallVector" = type { %"class.llvm::SmallVectorImpl", %"struct.llvm::SmallVectorStorage" }
%"class.llvm::SmallVectorImpl" = type { %"class.llvm::SmallVectorTemplateBase" }
%"class.llvm::SmallVectorTemplateBase" = type { %"class.llvm::SmallVectorTemplateCommon" }
%"class.llvm::SmallVectorTemplateCommon" = type { %"class.llvm::SmallVectorBase" }
%"class.llvm::SmallVectorBase" = type { ptr, i32, i32 }
%"struct.llvm::SmallVectorStorage" = type { [1024 x i8] }
%"class.std::__cxx11::basic_string" = type { %"struct.std::__cxx11::basic_string<char>::_Alloc_hider", i64, %union.anon }
%"struct.std::__cxx11::basic_string<char>::_Alloc_hider" = type { ptr }
%union.anon = type { i64, [8 x i8] }
%"struct.clang::PrintingPolicy" = type { i64, ptr }
%"class.llvm::StringRef" = type { ptr, i64 }
%"class.clang::TypeLoc" = type { ptr, ptr }
%class.anon.950 = type { ptr, %"class.clang::TypeLoc" }
%"class.std::function" = type { %"class.std::_Function_base", ptr }
%"class.std::_Function_base" = type { %"union.std::_Any_data", ptr }
%"union.std::_Any_data" = type { %"union.std::_Nocopy_types" }
%"union.std::_Nocopy_types" = type { { i64, i64 } }

@.str.1 = private unnamed_addr constant [1 x i8] zeroinitializer, align 1

; Function Attrs: mustprogress nounwind uwtable
define linkonce_odr hidden noundef ptr @_ZNK4llvm25SmallVectorTemplateCommonISt8functionIFvbEEvE10getFirstElEv(ptr noundef nonnull align 8 dereferenceable(16) %0) #0 comdat align 2 {
  %2 = alloca ptr, align 8
  store ptr %0, ptr %2, align 8
  %3 = load ptr, ptr %2, align 8
  %4 = getelementptr inbounds i8, ptr %3, i64 16
  ret ptr %4
}

; Function Attrs: mustprogress nounwind uwtable
define linkonce_odr hidden void @_ZNSt14_Function_baseD2Ev(ptr noundef nonnull align 8 dereferenceable(24) %0) unnamed_addr #0 comdat align 2 {
  %2 = alloca ptr, align 8
  store ptr %0, ptr %2, align 8
  %3 = load ptr, ptr %2, align 8
  %4 = getelementptr inbounds nuw %"class.std::_Function_base", ptr %3, i32 0, i32 1
  %5 = load ptr, ptr %4, align 8
  %6 = icmp ne ptr %5, null
  br i1 %6, label %7, label %13

7:                                                ; preds = %1
  %8 = getelementptr inbounds nuw %"class.std::_Function_base", ptr %3, i32 0, i32 1
  %9 = load ptr, ptr %8, align 8
  %10 = getelementptr inbounds nuw %"class.std::_Function_base", ptr %3, i32 0, i32 0
  %11 = getelementptr inbounds nuw %"class.std::_Function_base", ptr %3, i32 0, i32 0
  %12 = call noundef zeroext i1 %9(ptr noundef nonnull align 8 dereferenceable(16) %10, ptr noundef nonnull align 8 dereferenceable(16) %11, i32 noundef 3)
  br label %13

13:                                               ; preds = %7, %1
  ret void
}

; Function Attrs: mustprogress nounwind uwtable
define linkonce_odr hidden noundef zeroext i1 @_ZNK4llvm25SmallVectorTemplateCommonISt8functionIFvbEEvE7isSmallEv(ptr noundef nonnull align 8 dereferenceable(16) %0) #0 comdat align 2 {
  %2 = alloca ptr, align 8
  store ptr %0, ptr %2, align 8
  %3 = load ptr, ptr %2, align 8
  %4 = getelementptr inbounds nuw %"class.llvm::SmallVectorBase", ptr %3, i32 0, i32 0
  %5 = load ptr, ptr %4, align 8
  %6 = call noundef ptr @_ZNK4llvm25SmallVectorTemplateCommonISt8functionIFvbEEvE10getFirstElEv(ptr noundef nonnull align 8 dereferenceable(16) %3)
  %7 = icmp eq ptr %5, %6
  ret i1 %7
}

; Function Attrs: mustprogress nounwind uwtable
define linkonce_odr hidden void @_ZNSt8functionIFvbEED2Ev(ptr noundef nonnull align 8 dereferenceable(32) %0) unnamed_addr #0 comdat align 2 {
  %2 = alloca ptr, align 8
  store ptr %0, ptr %2, align 8
  %3 = load ptr, ptr %2, align 8
  call void @_ZNSt14_Function_baseD2Ev(ptr noundef nonnull align 8 dereferenceable(24) %3) #9
  ret void
}

; Function Attrs: mustprogress nounwind uwtable
define linkonce_odr hidden void @_ZN4llvm15SmallVectorImplISt8functionIFvbEEED2Ev(ptr noundef nonnull align 8 dereferenceable(16) %0) unnamed_addr #0 comdat align 2 {
  %2 = alloca ptr, align 8
  store ptr %0, ptr %2, align 8
  %3 = load ptr, ptr %2, align 8
  %4 = call noundef zeroext i1 @_ZNK4llvm25SmallVectorTemplateCommonISt8functionIFvbEEvE7isSmallEv(ptr noundef nonnull align 8 dereferenceable(16) %3)
  br i1 %4, label %7, label %5

5:                                                ; preds = %1
  %6 = call noundef ptr @_ZN4llvm25SmallVectorTemplateCommonISt8functionIFvbEEvE5beginEv(ptr noundef nonnull align 8 dereferenceable(16) %3)
  call void @free(ptr noundef %6) #9
  br label %7

7:                                                ; preds = %5, %1
  ret void
}

; Function Attrs: mustprogress nounwind uwtable
define linkonce_odr hidden void @_ZN4llvm23SmallVectorTemplateBaseISt8functionIFvbEELb0EE13destroy_rangeEPS3_S5_(ptr noundef %0, ptr noundef %1) #0 comdat align 2 {
  %3 = alloca ptr, align 8
  %4 = alloca ptr, align 8
  store ptr %0, ptr %3, align 8
  store ptr %1, ptr %4, align 8
  br label %5

5:                                                ; preds = %9, %2
  %6 = load ptr, ptr %3, align 8
  %7 = load ptr, ptr %4, align 8
  %8 = icmp ne ptr %6, %7
  br i1 %8, label %9, label %13

9:                                                ; preds = %5
  %10 = load ptr, ptr %4, align 8
  %11 = getelementptr inbounds %"class.std::function", ptr %10, i32 -1
  store ptr %11, ptr %4, align 8
  %12 = load ptr, ptr %4, align 8
  call void @_ZNSt8functionIFvbEED2Ev(ptr noundef nonnull align 8 dereferenceable(32) %12) #9
  br label %5, !llvm.loop !6

13:                                               ; preds = %5
  ret void
}

; Function Attrs: mustprogress nounwind uwtable
define linkonce_odr hidden noundef ptr @_ZN4llvm25SmallVectorTemplateCommonISt8functionIFvbEEvE3endEv(ptr noundef nonnull align 8 dereferenceable(16) %0) #0 comdat align 2 {
  %2 = alloca ptr, align 8
  store ptr %0, ptr %2, align 8
  %3 = load ptr, ptr %2, align 8
  %4 = call noundef ptr @_ZN4llvm25SmallVectorTemplateCommonISt8functionIFvbEEvE5beginEv(ptr noundef nonnull align 8 dereferenceable(16) %3)
  %5 = call noundef i64 @_ZNK4llvm15SmallVectorBaseIjE4sizeEv(ptr noundef nonnull align 8 dereferenceable(16) %3)
  %6 = getelementptr inbounds %"class.std::function", ptr %4, i64 %5
  ret ptr %6
}

; Function Attrs: mustprogress nounwind uwtable
define linkonce_odr hidden noundef ptr @_ZN4llvm25SmallVectorTemplateCommonISt8functionIFvbEEvE5beginEv(ptr noundef nonnull align 8 dereferenceable(16) %0) #0 comdat align 2 {
  %2 = alloca ptr, align 8
  store ptr %0, ptr %2, align 8
  %3 = load ptr, ptr %2, align 8
  %4 = getelementptr inbounds nuw %"class.llvm::SmallVectorBase", ptr %3, i32 0, i32 0
  %5 = load ptr, ptr %4, align 8
  ret ptr %5
}

; Function Attrs: mustprogress nounwind uwtable
define linkonce_odr hidden void @_ZN4llvm11SmallVectorISt8functionIFvbEELj32EED2Ev(ptr noundef nonnull align 8 dereferenceable(1040) %0) unnamed_addr #0 comdat align 2 {
  %2 = alloca ptr, align 8
  store ptr %0, ptr %2, align 8
  %3 = load ptr, ptr %2, align 8
  %4 = call noundef ptr @_ZN4llvm25SmallVectorTemplateCommonISt8functionIFvbEEvE5beginEv(ptr noundef nonnull align 8 dereferenceable(16) %3)
  %5 = call noundef ptr @_ZN4llvm25SmallVectorTemplateCommonISt8functionIFvbEEvE3endEv(ptr noundef nonnull align 8 dereferenceable(16) %3)
  call void @_ZN4llvm23SmallVectorTemplateBaseISt8functionIFvbEELb0EE13destroy_rangeEPS3_S5_(ptr noundef %4, ptr noundef %5)
  call void @_ZN4llvm15SmallVectorImplISt8functionIFvbEEED2Ev(ptr noundef nonnull align 8 dereferenceable(16) %3) #9
  ret void
}

; Function Attrs: mustprogress nounwind uwtable
define linkonce_odr hidden noundef i64 @_ZNSt11char_traitsIcE6lengthEPKc(ptr noundef %0) #0 comdat align 2 {
  %2 = alloca ptr, align 8
  store ptr %0, ptr %2, align 8
  %3 = load ptr, ptr %2, align 8
  %4 = call i64 @strlen(ptr noundef %3) #9
  ret i64 %4
}

; Function Attrs: mustprogress nounwind uwtable
define linkonce_odr hidden void @_ZN5clang17TextTreeStructureD2Ev(ptr noundef nonnull align 8 dereferenceable(1096) %0) unnamed_addr #0 comdat align 2 {
  %2 = alloca ptr, align 8
  store ptr %0, ptr %2, align 8
  %3 = load ptr, ptr %2, align 8
  %4 = getelementptr inbounds nuw %"class.clang::TextTreeStructure", ptr %3, i32 0, i32 5
  call void @_ZNSt7__cxx1112basic_stringIcSt11char_traitsIcESaIcEED1Ev(ptr noundef nonnull align 8 dereferenceable(32) %4) #9
  %5 = getelementptr inbounds nuw %"class.clang::TextTreeStructure", ptr %3, i32 0, i32 2
  call void @_ZN4llvm11SmallVectorISt8functionIFvbEELj32EED2Ev(ptr noundef nonnull align 8 dereferenceable(1040) %5) #9
  ret void
}

; Function Attrs: mustprogress nounwind uwtable
define linkonce_odr hidden void @_ZN4llvm9StringRefC2EPKc(ptr noundef nonnull align 8 dereferenceable(16) %0, ptr noundef %1) unnamed_addr #0 comdat align 2 {
  %3 = alloca ptr, align 8
  %4 = alloca ptr, align 8
  store ptr %0, ptr %3, align 8
  store ptr %1, ptr %4, align 8
  %5 = load ptr, ptr %3, align 8
  %6 = getelementptr inbounds nuw %"class.llvm::StringRef", ptr %5, i32 0, i32 0
  %7 = load ptr, ptr %4, align 8
  store ptr %7, ptr %6, align 8
  %8 = getelementptr inbounds nuw %"class.llvm::StringRef", ptr %5, i32 0, i32 1
  %9 = load ptr, ptr %4, align 8
  %10 = icmp ne ptr %9, null
  br i1 %10, label %11, label %14

11:                                               ; preds = %2
  %12 = load ptr, ptr %4, align 8
  %13 = call noundef i64 @_ZNSt11char_traitsIcE6lengthEPKc(ptr noundef %12)
  br label %15

14:                                               ; preds = %2
  br label %15

15:                                               ; preds = %14, %11
  %16 = phi i64 [ %13, %11 ], [ 0, %14 ]
  store i64 %16, ptr %8, align 8
  ret void
}

; Function Attrs: mustprogress nounwind uwtable
define linkonce_odr hidden noundef nonnull align 8 dereferenceable(1168) ptr @_ZN5clang9ASTDumper17doGetNodeDelegateEv(ptr noundef nonnull align 8 dereferenceable(1185) %0) #0 comdat align 2 {
  %2 = alloca ptr, align 8
  store ptr %0, ptr %2, align 8
  %3 = load ptr, ptr %2, align 8
  %4 = getelementptr inbounds nuw %"class.clang::ASTDumper", ptr %3, i32 0, i32 1
  ret ptr %4
}

; Function Attrs: mustprogress nounwind uwtable
define linkonce_odr hidden noundef nonnull align 8 dereferenceable(1185) ptr @_ZN5clang16ASTNodeTraverserINS_9ASTDumperENS_14TextNodeDumperEE10getDerivedEv(ptr noundef nonnull align 4 dereferenceable(8) %0) #0 comdat align 2 {
  %2 = alloca ptr, align 8
  store ptr %0, ptr %2, align 8
  %3 = load ptr, ptr %2, align 8
  ret ptr %3
}

; Function Attrs: mustprogress nounwind uwtable
define linkonce_odr hidden void @_ZN5clang14TextNodeDumperD2Ev(ptr noundef nonnull align 8 dereferenceable(1168) %0) unnamed_addr #0 comdat align 2 {
  %2 = alloca ptr, align 8
  store ptr %0, ptr %2, align 8
  %3 = load ptr, ptr %2, align 8
  call void @_ZN5clang17TextTreeStructureD2Ev(ptr noundef nonnull align 8 dereferenceable(1096) %3) #9
  ret void
}

; Function Attrs: mustprogress nounwind uwtable
define linkonce_odr hidden void @_ZN5clang17TextTreeStructure8AddChildIZNS_16ASTNodeTraverserINS_9ASTDumperENS_14TextNodeDumperEE5VisitENS_7TypeLocEEUlvE_EEvT_(ptr noundef nonnull align 8 dereferenceable(1096) %0, ptr noundef byval(%class.anon.950) align 8 %1) #0 comdat align 2 {
  %3 = alloca ptr, align 8
  %4 = alloca %"class.llvm::StringRef", align 8
  %5 = alloca %class.anon.950, align 8
  store ptr %0, ptr %3, align 8
  %6 = load ptr, ptr %3, align 8
  call void @_ZN4llvm9StringRefC2EPKc(ptr noundef nonnull align 8 dereferenceable(16) %4, ptr noundef @.str.1)
  call void @llvm.memcpy.p0.p0.i64(ptr align 8 %5, ptr align 8 %1, i64 24, i1 false)
  %7 = getelementptr inbounds nuw { ptr, i64 }, ptr %4, i32 0, i32 0
  %8 = load ptr, ptr %7, align 8
  %9 = getelementptr inbounds nuw { ptr, i64 }, ptr %4, i32 0, i32 1
  %10 = load i64, ptr %9, align 8
  call void @_ZN5clang17TextTreeStructure8AddChildIZNS_16ASTNodeTraverserINS_9ASTDumperENS_14TextNodeDumperEE5VisitENS_7TypeLocEEUlvE_EEvN4llvm9StringRefET_(ptr noundef nonnull align 8 dereferenceable(1096) %6, ptr %8, i64 %10, ptr noundef byval(%class.anon.950) align 8 %5)
  ret void
}

; Function Attrs: mustprogress nounwind uwtable
define linkonce_odr hidden noundef nonnull align 8 dereferenceable(1168) ptr @_ZN5clang16ASTNodeTraverserINS_9ASTDumperENS_14TextNodeDumperEE15getNodeDelegateEv(ptr noundef nonnull align 4 dereferenceable(8) %0) #0 comdat align 2 {
  %2 = alloca ptr, align 8
  store ptr %0, ptr %2, align 8
  %3 = load ptr, ptr %2, align 8
  %4 = call noundef nonnull align 8 dereferenceable(1185) ptr @_ZN5clang16ASTNodeTraverserINS_9ASTDumperENS_14TextNodeDumperEE10getDerivedEv(ptr noundef nonnull align 4 dereferenceable(8) %3)
  %5 = call noundef nonnull align 8 dereferenceable(1168) ptr @_ZN5clang9ASTDumper17doGetNodeDelegateEv(ptr noundef nonnull align 8 dereferenceable(1185) %4)
  ret ptr %5
}

; Function Attrs: mustprogress nounwind uwtable
define linkonce_odr hidden void @_ZN5clang16ASTNodeTraverserINS_9ASTDumperENS_14TextNodeDumperEEC2Ev(ptr noundef nonnull align 4 dereferenceable(8) %0) unnamed_addr #0 comdat align 2 {
  %2 = alloca ptr, align 8
  store ptr %0, ptr %2, align 8
  %3 = load ptr, ptr %2, align 8
  %4 = getelementptr inbounds nuw %"class.clang::ASTNodeTraverser", ptr %3, i32 0, i32 0
  store i8 0, ptr %4, align 4
  %5 = getelementptr inbounds nuw %"class.clang::ASTNodeTraverser", ptr %3, i32 0, i32 1
  store i8 0, ptr %5, align 1
  %6 = getelementptr inbounds nuw %"class.clang::ASTNodeTraverser", ptr %3, i32 0, i32 2
  store i32 0, ptr %6, align 4
  ret void
}

; Function Attrs: mustprogress nounwind uwtable
define linkonce_odr hidden void @_ZN5clang9ASTDumperD2Ev(ptr noundef nonnull align 8 dereferenceable(1185) %0) unnamed_addr #0 comdat align 2 {
  %2 = alloca ptr, align 8
  store ptr %0, ptr %2, align 8
  %3 = load ptr, ptr %2, align 8
  %4 = getelementptr inbounds nuw %"class.clang::ASTDumper", ptr %3, i32 0, i32 1
  call void @_ZN5clang14TextNodeDumperD2Ev(ptr noundef nonnull align 8 dereferenceable(1168) %4) #9
  ret void
}

; Function Attrs: mustprogress nounwind uwtable
define linkonce_odr hidden void @_ZN5clang16ASTNodeTraverserINS_9ASTDumperENS_14TextNodeDumperEE5VisitENS_7TypeLocE(ptr noundef nonnull align 4 dereferenceable(8) %0, ptr %1, ptr %2) #0 comdat align 2 {
  %4 = alloca %"class.clang::TypeLoc", align 8
  %5 = alloca ptr, align 8
  %6 = alloca %class.anon.950, align 8
  %7 = getelementptr inbounds nuw { ptr, ptr }, ptr %4, i32 0, i32 0
  store ptr %1, ptr %7, align 8
  %8 = getelementptr inbounds nuw { ptr, ptr }, ptr %4, i32 0, i32 1
  store ptr %2, ptr %8, align 8
  store ptr %0, ptr %5, align 8
  %9 = load ptr, ptr %5, align 8
  %10 = call noundef nonnull align 8 dereferenceable(1168) ptr @_ZN5clang16ASTNodeTraverserINS_9ASTDumperENS_14TextNodeDumperEE15getNodeDelegateEv(ptr noundef nonnull align 4 dereferenceable(8) %9)
  %11 = getelementptr inbounds nuw %class.anon.950, ptr %6, i32 0, i32 0
  store ptr %9, ptr %11, align 8
  %12 = getelementptr inbounds nuw %class.anon.950, ptr %6, i32 0, i32 1
  call void @llvm.memcpy.p0.p0.i64(ptr align 8 %12, ptr align 8 %4, i64 16, i1 false)
  call void @_ZN5clang17TextTreeStructure8AddChildIZNS_16ASTNodeTraverserINS_9ASTDumperENS_14TextNodeDumperEE5VisitENS_7TypeLocEEUlvE_EEvT_(ptr noundef nonnull align 8 dereferenceable(1096) %10, ptr noundef byval(%class.anon.950) align 8 %6)
  ret void
}

; Function Attrs: mustprogress nounwind uwtable
define linkonce_odr hidden void @_ZN5clang9ASTDumperC2ERN4llvm11raw_ostreamEb(ptr noundef nonnull align 8 dereferenceable(1185) %0, ptr noundef nonnull align 8 dereferenceable(48) %1, i1 noundef zeroext %2) unnamed_addr #0 comdat align 2 {
  %4 = alloca ptr, align 8
  %5 = alloca ptr, align 8
  %6 = alloca i8, align 1
  store ptr %0, ptr %4, align 8
  store ptr %1, ptr %5, align 8
  %7 = zext i1 %2 to i8
  store i8 %7, ptr %6, align 1
  %8 = load ptr, ptr %4, align 8
  call void @_ZN5clang16ASTNodeTraverserINS_9ASTDumperENS_14TextNodeDumperEEC2Ev(ptr noundef nonnull align 4 dereferenceable(8) %8) #9
  %9 = getelementptr inbounds nuw %"class.clang::ASTDumper", ptr %8, i32 0, i32 1
  %10 = load ptr, ptr %5, align 8
  %11 = load i8, ptr %6, align 1
  %12 = trunc i8 %11 to i1
  call void @_ZN5clang14TextNodeDumperC1ERN4llvm11raw_ostreamEb(ptr noundef nonnull align 8 dereferenceable(1168) %9, ptr noundef nonnull align 8 dereferenceable(48) %10, i1 noundef zeroext %12)
  %13 = getelementptr inbounds nuw %"class.clang::ASTDumper", ptr %8, i32 0, i32 2
  %14 = load ptr, ptr %5, align 8
  store ptr %14, ptr %13, align 8
  %15 = getelementptr inbounds nuw %"class.clang::ASTDumper", ptr %8, i32 0, i32 3
  %16 = load i8, ptr %6, align 1
  %17 = trunc i8 %16 to i1
  %18 = zext i1 %17 to i8
  store i8 %18, ptr %15, align 8
  ret void
}

; Function Attrs: mustprogress nounwind uwtable
define dso_local void @_ZNK5clang7TypeLoc4dumpEv(ptr noundef nonnull align 8 dereferenceable(16) %0) #0 align 2 {
  %2 = alloca ptr, align 8
  %3 = alloca %"class.clang::ASTDumper", align 8
  %4 = alloca %"class.clang::TypeLoc", align 8
  store ptr %0, ptr %2, align 8
  %5 = load ptr, ptr %2, align 8
  %6 = call noundef nonnull align 8 dereferenceable(96) ptr @_ZN4llvm4errsEv()
  call void @_ZN5clang9ASTDumperC2ERN4llvm11raw_ostreamEb(ptr noundef nonnull align 8 dereferenceable(1185) %3, ptr noundef nonnull align 8 dereferenceable(48) %6, i1 noundef zeroext false)
  call void @llvm.memcpy.p0.p0.i64(ptr align 8 %4, ptr align 8 %5, i64 16, i1 false)
  %7 = getelementptr inbounds nuw { ptr, ptr }, ptr %4, i32 0, i32 0
  %8 = load ptr, ptr %7, align 8
  %9 = getelementptr inbounds nuw { ptr, ptr }, ptr %4, i32 0, i32 1
  %10 = load ptr, ptr %9, align 8
  call void @_ZN5clang16ASTNodeTraverserINS_9ASTDumperENS_14TextNodeDumperEE5VisitENS_7TypeLocE(ptr noundef nonnull align 4 dereferenceable(8) %3, ptr %8, ptr %10)
  call void @_ZN5clang9ASTDumperD2Ev(ptr noundef nonnull align 8 dereferenceable(1185) %3) #9
  ret void
}