; Function Attrs: mustprogress nounwind uwtable
define dso_local void @_ZNK5clang7TypeLoc4dumpEv(ptr nocapture noundef nonnull readonly align 8 dereferenceable(16) %0) local_unnamed_addr #0 align 2 {
  %2 = alloca %class.anon.950, align 8
  %3 = alloca %"class.clang::ASTDumper", align 8
  %4 = tail call noundef nonnull align 8 dereferenceable(96) ptr @_ZN4llvm4errsEv() #18
  store i8 0, ptr %3, align 8
  %5 = getelementptr inbounds nuw i8, ptr %3, i64 1
  store i8 0, ptr %5, align 1
  %6 = getelementptr inbounds nuw i8, ptr %3, i64 4
  store i32 0, ptr %6, align 4
  %7 = getelementptr inbounds nuw i8, ptr %3, i64 8
  call void @_ZN5clang14TextNodeDumperC1ERN4llvm11raw_ostreamEb(ptr noundef nonnull align 8 dereferenceable(1168) %7, ptr noundef nonnull align 8 dereferenceable(48) %4, i1 noundef zeroext false) #18
  %8 = getelementptr inbounds nuw i8, ptr %3, i64 1176
  store ptr %4, ptr %8, align 8
  %9 = getelementptr inbounds nuw i8, ptr %3, i64 1184
  store i8 0, ptr %9, align 8
  %.sroa.0.0.copyload = load ptr, ptr %0, align 8
  %.sroa.2.0..sroa_idx = getelementptr inbounds i8, ptr %0, i64 8
  %.sroa.2.0.copyload = load ptr, ptr %.sroa.2.0..sroa_idx, align 8
  call void @llvm.lifetime.start.p0(i64 24, ptr nonnull %2)
  store ptr %3, ptr %2, align 8
  %.sroa.4.0..sroa_idx.i = getelementptr inbounds i8, ptr %2, i64 8
  store ptr %.sroa.0.0.copyload, ptr %.sroa.4.0..sroa_idx.i, align 8
  %.sroa.5.0..sroa_idx.i = getelementptr inbounds i8, ptr %2, i64 16
  store ptr %.sroa.2.0.copyload, ptr %.sroa.5.0..sroa_idx.i, align 8
  call void @_ZN5clang17TextTreeStructure8AddChildIZNS_16ASTNodeTraverserINS_9ASTDumperENS_14TextNodeDumperEE5VisitENS_7TypeLocEEUlvE_EEvN4llvm9StringRefET_(ptr noundef nonnull align 8 dereferenceable(1096) %7, ptr nonnull @.str.1, i64 0, ptr noundef nonnull byval(%class.anon.950) align 8 %2)
  call void @llvm.lifetime.end.p0(i64 24, ptr nonnull %2)
  %10 = getelementptr inbounds i8, ptr %3, i64 1072
  call void @_ZNSt7__cxx1112basic_stringIcSt11char_traitsIcESaIcEED1Ev(ptr noundef nonnull align 8 dereferenceable(32) %10) #18
  %11 = getelementptr inbounds i8, ptr %3, i64 24
  %12 = load ptr, ptr %11, align 8
  %13 = call noundef i64 @_ZNK4llvm15SmallVectorBaseIjE4sizeEv(ptr noundef nonnull align 8 dereferenceable(16) %11) #18
  %.not4.i.i.i.i.i = icmp eq i64 %13, 0
  br i1 %.not4.i.i.i.i.i, label %_ZN4llvm23SmallVectorTemplateBaseISt8functionIFvbEELb0EE13destroy_rangeEPS3_S5_.exit.i.i.i.i, label %.lr.ph.i.preheader.i.i.i.i

.lr.ph.i.preheader.i.i.i.i:                       ; preds = %1
  %14 = getelementptr inbounds %"class.std::function", ptr %12, i64 %13
  br label %.lr.ph.i.i.i.i.i

.lr.ph.i.i.i.i.i:                                 ; preds = %_ZNSt8functionIFvbEED2Ev.exit.i.i.i.i.i, %.lr.ph.i.preheader.i.i.i.i
  %.05.i.i.i.i.i = phi ptr [ %15, %_ZNSt8functionIFvbEED2Ev.exit.i.i.i.i.i ], [ %14, %.lr.ph.i.preheader.i.i.i.i ]
  %15 = getelementptr inbounds i8, ptr %.05.i.i.i.i.i, i64 -32
  %16 = getelementptr inbounds i8, ptr %.05.i.i.i.i.i, i64 -16
  %17 = load ptr, ptr %16, align 8
  %.not.i.i.i.i.i.i.i = icmp eq ptr %17, null
  br i1 %.not.i.i.i.i.i.i.i, label %_ZNSt8functionIFvbEED2Ev.exit.i.i.i.i.i, label %18

18:                                               ; preds = %.lr.ph.i.i.i.i.i
  %19 = call noundef zeroext i1 %17(ptr noundef nonnull align 8 dereferenceable(16) %15, ptr noundef nonnull align 8 dereferenceable(16) %15, i32 noundef 3) #18
  br label %_ZNSt8functionIFvbEED2Ev.exit.i.i.i.i.i

_ZNSt8functionIFvbEED2Ev.exit.i.i.i.i.i:          ; preds = %18, %.lr.ph.i.i.i.i.i
  %.not.i.i.i.i.i = icmp eq ptr %12, %15
  br i1 %.not.i.i.i.i.i, label %_ZN4llvm23SmallVectorTemplateBaseISt8functionIFvbEELb0EE13destroy_rangeEPS3_S5_.exit.i.i.i.i, label %.lr.ph.i.i.i.i.i, !llvm.loop !14

_ZN4llvm23SmallVectorTemplateBaseISt8functionIFvbEELb0EE13destroy_rangeEPS3_S5_.exit.i.i.i.i: ; preds = %_ZNSt8functionIFvbEED2Ev.exit.i.i.i.i.i, %1
  %20 = load ptr, ptr %11, align 8
  %21 = getelementptr inbounds i8, ptr %3, i64 40
  %22 = icmp eq ptr %20, %21
  br i1 %22, label %_ZN5clang9ASTDumperD2Ev.exit, label %23

23:                                               ; preds = %_ZN4llvm23SmallVectorTemplateBaseISt8functionIFvbEELb0EE13destroy_rangeEPS3_S5_.exit.i.i.i.i
  call void @free(ptr noundef %20) #18
  br label %_ZN5clang9ASTDumperD2Ev.exit

_ZN5clang9ASTDumperD2Ev.exit:                     ; preds = %_ZN4llvm23SmallVectorTemplateBaseISt8functionIFvbEELb0EE13destroy_rangeEPS3_S5_.exit.i.i.i.i, %23
  ret void
}